
build/program.elf:     file format elf32-littlearm


Disassembly of section .text:

08000000 <entry-0x40>:
 8000000:	20020000 	.word	0x20020000
 8000004:	08000041 	.word	0x08000041
 8000008:	080001f9 	.word	0x080001f9
 800000c:	080001f9 	.word	0x080001f9
 8000010:	080001f9 	.word	0x080001f9
 8000014:	080001f9 	.word	0x080001f9
 8000018:	080001f9 	.word	0x080001f9
 800001c:	080001f9 	.word	0x080001f9
 8000020:	080001f9 	.word	0x080001f9
 8000024:	080001f9 	.word	0x080001f9
 8000028:	080001f9 	.word	0x080001f9
 800002c:	08000209 	.word	0x08000209
 8000030:	080001f9 	.word	0x080001f9
 8000034:	080001f9 	.word	0x080001f9
 8000038:	080001f9 	.word	0x080001f9
 800003c:	0800020d 	.word	0x0800020d

08000040 <entry>:
 8000040:	f000 fb06 	bl	8000650 <main>

08000044 <task0>:
 8000044:	b508      	push	{r3, lr}
 8000046:	4c02      	ldr	r4, [pc, #8]	; (8000050 <task0+0xc>)
 8000048:	4620      	mov	r0, r4
 800004a:	f000 fa1f 	bl	800048c <USART_SendLine>
 800004e:	e7fb      	b.n	8000048 <task0+0x4>
 8000050:	08000686 	.word	0x08000686

08000054 <task1>:
 8000054:	b508      	push	{r3, lr}
 8000056:	4c02      	ldr	r4, [pc, #8]	; (8000060 <task1+0xc>)
 8000058:	4620      	mov	r0, r4
 800005a:	f000 fa17 	bl	800048c <USART_SendLine>
 800005e:	e7fb      	b.n	8000058 <task1+0x4>
 8000060:	0800068c 	.word	0x0800068c

08000064 <Mem_Init>:
 8000064:	4b08      	ldr	r3, [pc, #32]	; (8000088 <Mem_Init+0x24>)
 8000066:	4a09      	ldr	r2, [pc, #36]	; (800008c <Mem_Init+0x28>)
 8000068:	f06f 0107 	mvn.w	r1, #7
 800006c:	7019      	strb	r1, [r3, #0]
 800006e:	f06f 0120 	mvn.w	r1, #32
 8000072:	6013      	str	r3, [r2, #0]
 8000074:	7059      	strb	r1, [r3, #1]
 8000076:	2200      	movs	r2, #0
 8000078:	2101      	movs	r1, #1
 800007a:	7099      	strb	r1, [r3, #2]
 800007c:	70da      	strb	r2, [r3, #3]
 800007e:	711a      	strb	r2, [r3, #4]
 8000080:	715a      	strb	r2, [r3, #5]
 8000082:	719a      	strb	r2, [r3, #6]
 8000084:	71da      	strb	r2, [r3, #7]
 8000086:	4770      	bx	lr
 8000088:	20000004 	.word	0x20000004
 800008c:	20000000 	.word	0x20000000

08000090 <Mem_Alloc>:
 8000090:	b5f0      	push	{r4, r5, r6, r7, lr}
 8000092:	4d14      	ldr	r5, [pc, #80]	; (80000e4 <Mem_Alloc+0x54>)
 8000094:	3003      	adds	r0, #3
 8000096:	682b      	ldr	r3, [r5, #0]
 8000098:	f020 0003 	bic.w	r0, r0, #3
 800009c:	2100      	movs	r1, #0
 800009e:	b193      	cbz	r3, 80000c6 <Mem_Alloc+0x36>
 80000a0:	e9d3 2400 	ldrd	r2, r4, [r3]
 80000a4:	4282      	cmp	r2, r0
 80000a6:	d319      	bcc.n	80000dc <Mem_Alloc+0x4c>
 80000a8:	f100 0708 	add.w	r7, r0, #8
 80000ac:	42ba      	cmp	r2, r7
 80000ae:	d90e      	bls.n	80000ce <Mem_Alloc+0x3e>
 80000b0:	1a12      	subs	r2, r2, r0
 80000b2:	3a08      	subs	r2, #8
 80000b4:	19de      	adds	r6, r3, r7
 80000b6:	51da      	str	r2, [r3, r7]
 80000b8:	2200      	movs	r2, #0
 80000ba:	6074      	str	r4, [r6, #4]
 80000bc:	6018      	str	r0, [r3, #0]
 80000be:	605a      	str	r2, [r3, #4]
 80000c0:	b119      	cbz	r1, 80000ca <Mem_Alloc+0x3a>
 80000c2:	604e      	str	r6, [r1, #4]
 80000c4:	3308      	adds	r3, #8
 80000c6:	4618      	mov	r0, r3
 80000c8:	bdf0      	pop	{r4, r5, r6, r7, pc}
 80000ca:	602e      	str	r6, [r5, #0]
 80000cc:	e7fa      	b.n	80000c4 <Mem_Alloc+0x34>
 80000ce:	b119      	cbz	r1, 80000d8 <Mem_Alloc+0x48>
 80000d0:	604c      	str	r4, [r1, #4]
 80000d2:	2200      	movs	r2, #0
 80000d4:	605a      	str	r2, [r3, #4]
 80000d6:	e7f5      	b.n	80000c4 <Mem_Alloc+0x34>
 80000d8:	602c      	str	r4, [r5, #0]
 80000da:	e7fa      	b.n	80000d2 <Mem_Alloc+0x42>
 80000dc:	4619      	mov	r1, r3
 80000de:	4623      	mov	r3, r4
 80000e0:	e7dd      	b.n	800009e <Mem_Alloc+0xe>
 80000e2:	bf00      	nop
 80000e4:	20000000 	.word	0x20000000

080000e8 <Mem_Free>:
 80000e8:	b530      	push	{r4, r5, lr}
 80000ea:	b338      	cbz	r0, 800013c <Mem_Free+0x54>
 80000ec:	4c16      	ldr	r4, [pc, #88]	; (8000148 <Mem_Free+0x60>)
 80000ee:	6823      	ldr	r3, [r4, #0]
 80000f0:	f1a0 0108 	sub.w	r1, r0, #8
 80000f4:	2200      	movs	r2, #0
 80000f6:	b10b      	cbz	r3, 80000fc <Mem_Free+0x14>
 80000f8:	428b      	cmp	r3, r1
 80000fa:	d320      	bcc.n	800013e <Mem_Free+0x56>
 80000fc:	f840 3c04 	str.w	r3, [r0, #-4]
 8000100:	b302      	cbz	r2, 8000144 <Mem_Free+0x5c>
 8000102:	6051      	str	r1, [r2, #4]
 8000104:	f850 4c08 	ldr.w	r4, [r0, #-8]
 8000108:	1905      	adds	r5, r0, r4
 800010a:	42ab      	cmp	r3, r5
 800010c:	d107      	bne.n	800011e <Mem_Free+0x36>
 800010e:	681d      	ldr	r5, [r3, #0]
 8000110:	685b      	ldr	r3, [r3, #4]
 8000112:	f840 3c04 	str.w	r3, [r0, #-4]
 8000116:	3408      	adds	r4, #8
 8000118:	442c      	add	r4, r5
 800011a:	f840 4c08 	str.w	r4, [r0, #-8]
 800011e:	b16a      	cbz	r2, 800013c <Mem_Free+0x54>
 8000120:	6815      	ldr	r5, [r2, #0]
 8000122:	f105 0408 	add.w	r4, r5, #8
 8000126:	4414      	add	r4, r2
 8000128:	42a1      	cmp	r1, r4
 800012a:	d107      	bne.n	800013c <Mem_Free+0x54>
 800012c:	f850 3c08 	ldr.w	r3, [r0, #-8]
 8000130:	3308      	adds	r3, #8
 8000132:	442b      	add	r3, r5
 8000134:	6013      	str	r3, [r2, #0]
 8000136:	f850 3c04 	ldr.w	r3, [r0, #-4]
 800013a:	6053      	str	r3, [r2, #4]
 800013c:	bd30      	pop	{r4, r5, pc}
 800013e:	461a      	mov	r2, r3
 8000140:	685b      	ldr	r3, [r3, #4]
 8000142:	e7d8      	b.n	80000f6 <Mem_Free+0xe>
 8000144:	6021      	str	r1, [r4, #0]
 8000146:	e7dd      	b.n	8000104 <Mem_Free+0x1c>
 8000148:	20000000 	.word	0x20000000

0800014c <Task_New>:
 800014c:	b570      	push	{r4, r5, r6, lr}
 800014e:	4605      	mov	r5, r0
 8000150:	2030      	movs	r0, #48	; 0x30
 8000152:	460e      	mov	r6, r1
 8000154:	f7ff ff9c 	bl	8000090 <Mem_Alloc>
 8000158:	4604      	mov	r4, r0
 800015a:	f106 0020 	add.w	r0, r6, #32
 800015e:	f7ff ff97 	bl	8000090 <Mem_Alloc>
 8000162:	eb00 0086 	add.w	r0, r0, r6, lsl #2
 8000166:	f04f 7380 	mov.w	r3, #16777216	; 0x1000000
 800016a:	4a09      	ldr	r2, [pc, #36]	; (8000190 <Task_New+0x44>)
 800016c:	6145      	str	r5, [r0, #20]
 800016e:	61c3      	str	r3, [r0, #28]
 8000170:	3d01      	subs	r5, #1
 8000172:	2300      	movs	r3, #0
 8000174:	6185      	str	r5, [r0, #24]
 8000176:	62e3      	str	r3, [r4, #44]	; 0x2c
 8000178:	6813      	ldr	r3, [r2, #0]
 800017a:	62a0      	str	r0, [r4, #40]	; 0x28
 800017c:	b90b      	cbnz	r3, 8000182 <Task_New+0x36>
 800017e:	6014      	str	r4, [r2, #0]
 8000180:	bd70      	pop	{r4, r5, r6, pc}
 8000182:	461a      	mov	r2, r3
 8000184:	6adb      	ldr	r3, [r3, #44]	; 0x2c
 8000186:	2b00      	cmp	r3, #0
 8000188:	d1fb      	bne.n	8000182 <Task_New+0x36>
 800018a:	62d4      	str	r4, [r2, #44]	; 0x2c
 800018c:	e7f8      	b.n	8000180 <Task_New+0x34>
 800018e:	bf00      	nop
 8000190:	2001e004 	.word	0x2001e004

08000194 <Sys_Init>:
 8000194:	b508      	push	{r3, lr}
 8000196:	4b04      	ldr	r3, [pc, #16]	; (80001a8 <Sys_Init+0x14>)
 8000198:	2200      	movs	r2, #0
 800019a:	601a      	str	r2, [r3, #0]
 800019c:	f7ff ff62 	bl	8000064 <Mem_Init>
 80001a0:	e8bd 4008 	ldmia.w	sp!, {r3, lr}
 80001a4:	f000 b834 	b.w	8000210 <__Sys_InitTick>
 80001a8:	2001e004 	.word	0x2001e004

080001ac <_Task_Run>:
 80001ac:	b510      	push	{r4, lr}
 80001ae:	4604      	mov	r4, r0
 80001b0:	f000 f849 	bl	8000246 <__Sys_EnableTickInt>
 80001b4:	f104 0008 	add.w	r0, r4, #8
 80001b8:	e8bd 4010 	ldmia.w	sp!, {r4, lr}
 80001bc:	f000 ba2e 	b.w	800061c <__Sys_UserMode>

080001c0 <Sys_StartScheduler>:
 80001c0:	b508      	push	{r3, lr}
 80001c2:	f000 f839 	bl	8000238 <__Sys_StartTick>
 80001c6:	4c05      	ldr	r4, [pc, #20]	; (80001dc <Sys_StartScheduler+0x1c>)
 80001c8:	6823      	ldr	r3, [r4, #0]
 80001ca:	6063      	str	r3, [r4, #4]
 80001cc:	6860      	ldr	r0, [r4, #4]
 80001ce:	f7ff ffed 	bl	80001ac <_Task_Run>
 80001d2:	6863      	ldr	r3, [r4, #4]
 80001d4:	6adb      	ldr	r3, [r3, #44]	; 0x2c
 80001d6:	2b00      	cmp	r3, #0
 80001d8:	d1f7      	bne.n	80001ca <Sys_StartScheduler+0xa>
 80001da:	e7f5      	b.n	80001c8 <Sys_StartScheduler+0x8>
 80001dc:	2001e004 	.word	0x2001e004

080001e0 <__Int_SYSTICK>:
 80001e0:	b508      	push	{r3, lr}
 80001e2:	f000 f837 	bl	8000254 <__Sys_DisableTickInt>
 80001e6:	4b03      	ldr	r3, [pc, #12]	; (80001f4 <__Int_SYSTICK+0x14>)
 80001e8:	6858      	ldr	r0, [r3, #4]
 80001ea:	e8bd 4008 	ldmia.w	sp!, {r3, lr}
 80001ee:	3008      	adds	r0, #8
 80001f0:	f000 ba21 	b.w	8000636 <__Sys_KernelMode>
 80001f4:	2001e004 	.word	0x2001e004

080001f8 <Fault_Handler>:
 80001f8:	b508      	push	{r3, lr}
 80001fa:	4802      	ldr	r0, [pc, #8]	; (8000204 <Fault_Handler+0xc>)
 80001fc:	f000 f833 	bl	8000266 <Log_SendLine>
 8000200:	e7fe      	b.n	8000200 <Fault_Handler+0x8>
 8000202:	bf00      	nop
 8000204:	08000692 	.word	0x08000692

08000208 <Int_SVC>:
 8000208:	f000 ba0a 	b.w	8000620 <__Int_SVC>

0800020c <Int_SYSTICK>:
 800020c:	f7ff bfe8 	b.w	80001e0 <__Int_SYSTICK>

08000210 <__Sys_InitTick>:
 8000210:	f04f 23e0 	mov.w	r3, #3758153728	; 0xe000e000
 8000214:	b082      	sub	sp, #8
 8000216:	695a      	ldr	r2, [r3, #20]
 8000218:	9201      	str	r2, [sp, #4]
 800021a:	f243 02d4 	movw	r2, #12500	; 0x30d4
 800021e:	f8ad 2004 	strh.w	r2, [sp, #4]
 8000222:	9a01      	ldr	r2, [sp, #4]
 8000224:	615a      	str	r2, [r3, #20]
 8000226:	699a      	ldr	r2, [r3, #24]
 8000228:	9201      	str	r2, [sp, #4]
 800022a:	2200      	movs	r2, #0
 800022c:	f8ad 2004 	strh.w	r2, [sp, #4]
 8000230:	9a01      	ldr	r2, [sp, #4]
 8000232:	619a      	str	r2, [r3, #24]
 8000234:	b002      	add	sp, #8
 8000236:	4770      	bx	lr

08000238 <__Sys_StartTick>:
 8000238:	f04f 22e0 	mov.w	r2, #3758153728	; 0xe000e000
 800023c:	6913      	ldr	r3, [r2, #16]
 800023e:	f043 0301 	orr.w	r3, r3, #1
 8000242:	6113      	str	r3, [r2, #16]
 8000244:	4770      	bx	lr

08000246 <__Sys_EnableTickInt>:
 8000246:	f04f 22e0 	mov.w	r2, #3758153728	; 0xe000e000
 800024a:	6913      	ldr	r3, [r2, #16]
 800024c:	f043 0302 	orr.w	r3, r3, #2
 8000250:	6113      	str	r3, [r2, #16]
 8000252:	4770      	bx	lr

08000254 <__Sys_DisableTickInt>:
 8000254:	f04f 22e0 	mov.w	r2, #3758153728	; 0xe000e000
 8000258:	6913      	ldr	r3, [r2, #16]
 800025a:	f023 0302 	bic.w	r3, r3, #2
 800025e:	6113      	str	r3, [r2, #16]
 8000260:	4770      	bx	lr

08000262 <Log_Init>:
 8000262:	f000 b8dd 	b.w	8000420 <USART_Init>

08000266 <Log_SendLine>:
 8000266:	f000 b911 	b.w	800048c <USART_SendLine>
	...

0800026c <__SYSCLK_Init>:
 800026c:	4b22      	ldr	r3, [pc, #136]	; (80002f8 <__SYSCLK_Init+0x8c>)
 800026e:	2207      	movs	r2, #7
 8000270:	f883 2026 	strb.w	r2, [r3, #38]	; 0x26
 8000274:	4b21      	ldr	r3, [pc, #132]	; (80002fc <__SYSCLK_Init+0x90>)
 8000276:	681a      	ldr	r2, [r3, #0]
 8000278:	f442 3280 	orr.w	r2, r2, #65536	; 0x10000
 800027c:	b082      	sub	sp, #8
 800027e:	601a      	str	r2, [r3, #0]
 8000280:	681a      	ldr	r2, [r3, #0]
 8000282:	0392      	lsls	r2, r2, #14
 8000284:	d5fc      	bpl.n	8000280 <__SYSCLK_Init+0x14>
 8000286:	685a      	ldr	r2, [r3, #4]
 8000288:	9201      	str	r2, [sp, #4]
 800028a:	2210      	movs	r2, #16
 800028c:	f88d 2004 	strb.w	r2, [sp, #4]
 8000290:	9a01      	ldr	r2, [sp, #4]
 8000292:	605a      	str	r2, [r3, #4]
 8000294:	685a      	ldr	r2, [r3, #4]
 8000296:	9201      	str	r2, [sp, #4]
 8000298:	2220      	movs	r2, #32
 800029a:	f88d 2005 	strb.w	r2, [sp, #5]
 800029e:	9a01      	ldr	r2, [sp, #4]
 80002a0:	605a      	str	r2, [r3, #4]
 80002a2:	685a      	ldr	r2, [r3, #4]
 80002a4:	9201      	str	r2, [sp, #4]
 80002a6:	2240      	movs	r2, #64	; 0x40
 80002a8:	f88d 2006 	strb.w	r2, [sp, #6]
 80002ac:	9a01      	ldr	r2, [sp, #4]
 80002ae:	605a      	str	r2, [r3, #4]
 80002b0:	681a      	ldr	r2, [r3, #0]
 80002b2:	f042 7280 	orr.w	r2, r2, #16777216	; 0x1000000
 80002b6:	601a      	str	r2, [r3, #0]
 80002b8:	4a10      	ldr	r2, [pc, #64]	; (80002fc <__SYSCLK_Init+0x90>)
 80002ba:	6813      	ldr	r3, [r2, #0]
 80002bc:	019b      	lsls	r3, r3, #6
 80002be:	d5fc      	bpl.n	80002ba <__SYSCLK_Init+0x4e>
 80002c0:	2394      	movs	r3, #148	; 0x94
 80002c2:	7253      	strb	r3, [r2, #9]
 80002c4:	4b0e      	ldr	r3, [pc, #56]	; (8000300 <__SYSCLK_Init+0x94>)
 80002c6:	6819      	ldr	r1, [r3, #0]
 80002c8:	9101      	str	r1, [sp, #4]
 80002ca:	2103      	movs	r1, #3
 80002cc:	f88d 1004 	strb.w	r1, [sp, #4]
 80002d0:	9901      	ldr	r1, [sp, #4]
 80002d2:	6019      	str	r1, [r3, #0]
 80002d4:	2102      	movs	r1, #2
 80002d6:	7211      	strb	r1, [r2, #8]
 80002d8:	4908      	ldr	r1, [pc, #32]	; (80002fc <__SYSCLK_Init+0x90>)
 80002da:	688a      	ldr	r2, [r1, #8]
 80002dc:	f002 020c 	and.w	r2, r2, #12
 80002e0:	2a08      	cmp	r2, #8
 80002e2:	d1fa      	bne.n	80002da <__SYSCLK_Init+0x6e>
 80002e4:	681a      	ldr	r2, [r3, #0]
 80002e6:	9201      	str	r2, [sp, #4]
 80002e8:	2207      	movs	r2, #7
 80002ea:	f88d 2005 	strb.w	r2, [sp, #5]
 80002ee:	9a01      	ldr	r2, [sp, #4]
 80002f0:	601a      	str	r2, [r3, #0]
 80002f2:	b002      	add	sp, #8
 80002f4:	4770      	bx	lr
 80002f6:	bf00      	nop
 80002f8:	e000ed00 	.word	0xe000ed00
 80002fc:	40023800 	.word	0x40023800
 8000300:	40023c00 	.word	0x40023c00

08000304 <MCU_Init>:
 8000304:	f7ff bfb2 	b.w	800026c <__SYSCLK_Init>

08000308 <__MCO2_Out>:
 8000308:	4b0f      	ldr	r3, [pc, #60]	; (8000348 <__MCO2_Out+0x40>)
 800030a:	689a      	ldr	r2, [r3, #8]
 800030c:	f042 6200 	orr.w	r2, r2, #134217728	; 0x8000000
 8000310:	609a      	str	r2, [r3, #8]
 8000312:	689a      	ldr	r2, [r3, #8]
 8000314:	f042 5280 	orr.w	r2, r2, #268435456	; 0x10000000
 8000318:	609a      	str	r2, [r3, #8]
 800031a:	689a      	ldr	r2, [r3, #8]
 800031c:	f042 5200 	orr.w	r2, r2, #536870912	; 0x20000000
 8000320:	609a      	str	r2, [r3, #8]
 8000322:	6b1a      	ldr	r2, [r3, #48]	; 0x30
 8000324:	f042 0204 	orr.w	r2, r2, #4
 8000328:	631a      	str	r2, [r3, #48]	; 0x30
 800032a:	f5a3 5340 	sub.w	r3, r3, #12288	; 0x3000
 800032e:	681a      	ldr	r2, [r3, #0]
 8000330:	f442 2200 	orr.w	r2, r2, #524288	; 0x80000
 8000334:	601a      	str	r2, [r3, #0]
 8000336:	689a      	ldr	r2, [r3, #8]
 8000338:	f442 2280 	orr.w	r2, r2, #262144	; 0x40000
 800033c:	609a      	str	r2, [r3, #8]
 800033e:	689a      	ldr	r2, [r3, #8]
 8000340:	f442 2200 	orr.w	r2, r2, #524288	; 0x80000
 8000344:	609a      	str	r2, [r3, #8]
 8000346:	4770      	bx	lr
 8000348:	40023800 	.word	0x40023800

0800034c <Timer_Set>:
 800034c:	7803      	ldrb	r3, [r0, #0]
 800034e:	7842      	ldrb	r2, [r0, #1]
 8000350:	029b      	lsls	r3, r3, #10
 8000352:	b082      	sub	sp, #8
 8000354:	f103 4380 	add.w	r3, r3, #1073741824	; 0x40000000
 8000358:	b312      	cbz	r2, 80003a0 <Timer_Set+0x54>
 800035a:	681a      	ldr	r2, [r3, #0]
 800035c:	f042 0210 	orr.w	r2, r2, #16
 8000360:	601a      	str	r2, [r3, #0]
 8000362:	6a9a      	ldr	r2, [r3, #40]	; 0x28
 8000364:	9201      	str	r2, [sp, #4]
 8000366:	8842      	ldrh	r2, [r0, #2]
 8000368:	f8ad 2004 	strh.w	r2, [sp, #4]
 800036c:	9a01      	ldr	r2, [sp, #4]
 800036e:	629a      	str	r2, [r3, #40]	; 0x28
 8000370:	6ada      	ldr	r2, [r3, #44]	; 0x2c
 8000372:	9201      	str	r2, [sp, #4]
 8000374:	8882      	ldrh	r2, [r0, #4]
 8000376:	f8ad 2004 	strh.w	r2, [sp, #4]
 800037a:	9a01      	ldr	r2, [sp, #4]
 800037c:	62da      	str	r2, [r3, #44]	; 0x2c
 800037e:	6ada      	ldr	r2, [r3, #44]	; 0x2c
 8000380:	9201      	str	r2, [sp, #4]
 8000382:	2200      	movs	r2, #0
 8000384:	f8ad 2006 	strh.w	r2, [sp, #6]
 8000388:	9a01      	ldr	r2, [sp, #4]
 800038a:	62da      	str	r2, [r3, #44]	; 0x2c
 800038c:	695a      	ldr	r2, [r3, #20]
 800038e:	f042 0201 	orr.w	r2, r2, #1
 8000392:	615a      	str	r2, [r3, #20]
 8000394:	691a      	ldr	r2, [r3, #16]
 8000396:	f022 0201 	bic.w	r2, r2, #1
 800039a:	611a      	str	r2, [r3, #16]
 800039c:	b002      	add	sp, #8
 800039e:	4770      	bx	lr
 80003a0:	681a      	ldr	r2, [r3, #0]
 80003a2:	f022 0210 	bic.w	r2, r2, #16
 80003a6:	e7db      	b.n	8000360 <Timer_Set+0x14>

080003a8 <Timer_Init>:
 80003a8:	4a05      	ldr	r2, [pc, #20]	; (80003c0 <Timer_Init+0x18>)
 80003aa:	b410      	push	{r4}
 80003ac:	7804      	ldrb	r4, [r0, #0]
 80003ae:	6c11      	ldr	r1, [r2, #64]	; 0x40
 80003b0:	2301      	movs	r3, #1
 80003b2:	40a3      	lsls	r3, r4
 80003b4:	430b      	orrs	r3, r1
 80003b6:	bc10      	pop	{r4}
 80003b8:	6413      	str	r3, [r2, #64]	; 0x40
 80003ba:	f7ff bfc7 	b.w	800034c <Timer_Set>
 80003be:	bf00      	nop
 80003c0:	40023800 	.word	0x40023800

080003c4 <Timer_Start>:
 80003c4:	0280      	lsls	r0, r0, #10
 80003c6:	f100 4080 	add.w	r0, r0, #1073741824	; 0x40000000
 80003ca:	6943      	ldr	r3, [r0, #20]
 80003cc:	f043 0301 	orr.w	r3, r3, #1
 80003d0:	6143      	str	r3, [r0, #20]
 80003d2:	6903      	ldr	r3, [r0, #16]
 80003d4:	f023 0301 	bic.w	r3, r3, #1
 80003d8:	6103      	str	r3, [r0, #16]
 80003da:	6803      	ldr	r3, [r0, #0]
 80003dc:	f043 0301 	orr.w	r3, r3, #1
 80003e0:	6003      	str	r3, [r0, #0]
 80003e2:	4770      	bx	lr

080003e4 <Timer_Stop>:
 80003e4:	0280      	lsls	r0, r0, #10
 80003e6:	f100 4080 	add.w	r0, r0, #1073741824	; 0x40000000
 80003ea:	6803      	ldr	r3, [r0, #0]
 80003ec:	f023 0301 	bic.w	r3, r3, #1
 80003f0:	6003      	str	r3, [r0, #0]
 80003f2:	4770      	bx	lr

080003f4 <Timer_Reach>:
 80003f4:	0280      	lsls	r0, r0, #10
 80003f6:	f100 4080 	add.w	r0, r0, #1073741824	; 0x40000000
 80003fa:	6900      	ldr	r0, [r0, #16]
 80003fc:	f000 0001 	and.w	r0, r0, #1
 8000400:	4770      	bx	lr

08000402 <Timer_ReachClear>:
 8000402:	0280      	lsls	r0, r0, #10
 8000404:	f100 4080 	add.w	r0, r0, #1073741824	; 0x40000000
 8000408:	6903      	ldr	r3, [r0, #16]
 800040a:	f023 0301 	bic.w	r3, r3, #1
 800040e:	6103      	str	r3, [r0, #16]
 8000410:	4770      	bx	lr

08000412 <Timer_CurCount>:
 8000412:	0280      	lsls	r0, r0, #10
 8000414:	f100 4080 	add.w	r0, r0, #1073741824	; 0x40000000
 8000418:	6a40      	ldr	r0, [r0, #36]	; 0x24
 800041a:	b280      	uxth	r0, r0
 800041c:	4770      	bx	lr
 800041e:	bf00      	nop

08000420 <USART_Init>:
 8000420:	4b15      	ldr	r3, [pc, #84]	; (8000478 <USART_Init+0x58>)
 8000422:	6c5a      	ldr	r2, [r3, #68]	; 0x44
 8000424:	f042 0210 	orr.w	r2, r2, #16
 8000428:	645a      	str	r2, [r3, #68]	; 0x44
 800042a:	6b1a      	ldr	r2, [r3, #48]	; 0x30
 800042c:	f042 0201 	orr.w	r2, r2, #1
 8000430:	631a      	str	r2, [r3, #48]	; 0x30
 8000432:	f5a3 3394 	sub.w	r3, r3, #75776	; 0x12800
 8000436:	b082      	sub	sp, #8
 8000438:	689a      	ldr	r2, [r3, #8]
 800043a:	9201      	str	r2, [sp, #4]
 800043c:	f241 4258 	movw	r2, #5208	; 0x1458
 8000440:	f8ad 2004 	strh.w	r2, [sp, #4]
 8000444:	9a01      	ldr	r2, [sp, #4]
 8000446:	609a      	str	r2, [r3, #8]
 8000448:	68da      	ldr	r2, [r3, #12]
 800044a:	f442 5200 	orr.w	r2, r2, #8192	; 0x2000
 800044e:	60da      	str	r2, [r3, #12]
 8000450:	68da      	ldr	r2, [r3, #12]
 8000452:	f042 0208 	orr.w	r2, r2, #8
 8000456:	60da      	str	r2, [r3, #12]
 8000458:	f503 4370 	add.w	r3, r3, #61440	; 0xf000
 800045c:	681a      	ldr	r2, [r3, #0]
 800045e:	f442 2200 	orr.w	r2, r2, #524288	; 0x80000
 8000462:	601a      	str	r2, [r3, #0]
 8000464:	6a5a      	ldr	r2, [r3, #36]	; 0x24
 8000466:	9201      	str	r2, [sp, #4]
 8000468:	2270      	movs	r2, #112	; 0x70
 800046a:	f88d 2004 	strb.w	r2, [sp, #4]
 800046e:	9a01      	ldr	r2, [sp, #4]
 8000470:	625a      	str	r2, [r3, #36]	; 0x24
 8000472:	b002      	add	sp, #8
 8000474:	4770      	bx	lr
 8000476:	bf00      	nop
 8000478:	40023800 	.word	0x40023800

0800047c <USART_SendByte>:
 800047c:	4b02      	ldr	r3, [pc, #8]	; (8000488 <USART_SendByte+0xc>)
 800047e:	681a      	ldr	r2, [r3, #0]
 8000480:	0612      	lsls	r2, r2, #24
 8000482:	d5fc      	bpl.n	800047e <USART_SendByte+0x2>
 8000484:	7118      	strb	r0, [r3, #4]
 8000486:	4770      	bx	lr
 8000488:	40011000 	.word	0x40011000

0800048c <USART_SendLine>:
 800048c:	b508      	push	{r3, lr}
 800048e:	1e41      	subs	r1, r0, #1
 8000490:	f811 0f01 	ldrb.w	r0, [r1, #1]!
 8000494:	b920      	cbnz	r0, 80004a0 <USART_SendLine+0x14>
 8000496:	e8bd 4008 	ldmia.w	sp!, {r3, lr}
 800049a:	200a      	movs	r0, #10
 800049c:	f7ff bfee 	b.w	800047c <USART_SendByte>
 80004a0:	f7ff ffec 	bl	800047c <USART_SendByte>
 80004a4:	e7f4      	b.n	8000490 <USART_SendLine+0x4>

080004a6 <USART_Printf>:
 80004a6:	e92d 47ff 	stmdb	sp!, {r0, r1, r2, r3, r4, r5, r6, r7, r8, r9, sl, lr}
 80004aa:	ea82 78e2 	eor.w	r8, r2, r2, asr #31
 80004ae:	4681      	mov	r9, r0
 80004b0:	461d      	mov	r5, r3
 80004b2:	4614      	mov	r4, r2
 80004b4:	eba8 78e2 	sub.w	r8, r8, r2, asr #31
 80004b8:	260a      	movs	r6, #10
 80004ba:	f899 0000 	ldrb.w	r0, [r9]
 80004be:	b910      	cbnz	r0, 80004c6 <USART_Printf+0x20>
 80004c0:	b004      	add	sp, #16
 80004c2:	e8bd 87f0 	ldmia.w	sp!, {r4, r5, r6, r7, r8, r9, sl, pc}
 80004c6:	2825      	cmp	r0, #37	; 0x25
 80004c8:	f109 0701 	add.w	r7, r9, #1
 80004cc:	d14f      	bne.n	800056e <USART_Printf+0xc8>
 80004ce:	f899 3001 	ldrb.w	r3, [r9, #1]
 80004d2:	2b73      	cmp	r3, #115	; 0x73
 80004d4:	d10a      	bne.n	80004ec <USART_Printf+0x46>
 80004d6:	4689      	mov	r9, r1
 80004d8:	4649      	mov	r1, r9
 80004da:	f819 0b01 	ldrb.w	r0, [r9], #1
 80004de:	b910      	cbnz	r0, 80004e6 <USART_Printf+0x40>
 80004e0:	f107 0901 	add.w	r9, r7, #1
 80004e4:	e7e9      	b.n	80004ba <USART_Printf+0x14>
 80004e6:	f7ff ffc9 	bl	800047c <USART_SendByte>
 80004ea:	e7f5      	b.n	80004d8 <USART_Printf+0x32>
 80004ec:	2b64      	cmp	r3, #100	; 0x64
 80004ee:	d11d      	bne.n	800052c <USART_Printf+0x86>
 80004f0:	2c00      	cmp	r4, #0
 80004f2:	da02      	bge.n	80004fa <USART_Printf+0x54>
 80004f4:	202d      	movs	r0, #45	; 0x2d
 80004f6:	f7ff ffc1 	bl	800047c <USART_SendByte>
 80004fa:	ab01      	add	r3, sp, #4
 80004fc:	4640      	mov	r0, r8
 80004fe:	f04f 0900 	mov.w	r9, #0
 8000502:	469a      	mov	sl, r3
 8000504:	fbb0 f2f6 	udiv	r2, r0, r6
 8000508:	fb06 0012 	mls	r0, r6, r2, r0
 800050c:	3030      	adds	r0, #48	; 0x30
 800050e:	f803 0b01 	strb.w	r0, [r3], #1
 8000512:	f109 0901 	add.w	r9, r9, #1
 8000516:	4610      	mov	r0, r2
 8000518:	2a00      	cmp	r2, #0
 800051a:	d1f3      	bne.n	8000504 <USART_Printf+0x5e>
 800051c:	f1b9 0901 	subs.w	r9, r9, #1
 8000520:	d3de      	bcc.n	80004e0 <USART_Printf+0x3a>
 8000522:	f81a 0009 	ldrb.w	r0, [sl, r9]
 8000526:	f7ff ffa9 	bl	800047c <USART_SendByte>
 800052a:	e7f7      	b.n	800051c <USART_Printf+0x76>
 800052c:	2b78      	cmp	r3, #120	; 0x78
 800052e:	d1d7      	bne.n	80004e0 <USART_Printf+0x3a>
 8000530:	a801      	add	r0, sp, #4
 8000532:	462b      	mov	r3, r5
 8000534:	f04f 0900 	mov.w	r9, #0
 8000538:	4682      	mov	sl, r0
 800053a:	f003 0c0f 	and.w	ip, r3, #15
 800053e:	4662      	mov	r2, ip
 8000540:	f1bc 0f09 	cmp.w	ip, #9
 8000544:	bfd4      	ite	le
 8000546:	3230      	addle	r2, #48	; 0x30
 8000548:	3257      	addgt	r2, #87	; 0x57
 800054a:	2b0f      	cmp	r3, #15
 800054c:	f800 2b01 	strb.w	r2, [r0], #1
 8000550:	f109 0901 	add.w	r9, r9, #1
 8000554:	ea4f 1213 	mov.w	r2, r3, lsr #4
 8000558:	d807      	bhi.n	800056a <USART_Printf+0xc4>
 800055a:	f1b9 0901 	subs.w	r9, r9, #1
 800055e:	d3bf      	bcc.n	80004e0 <USART_Printf+0x3a>
 8000560:	f81a 0009 	ldrb.w	r0, [sl, r9]
 8000564:	f7ff ff8a 	bl	800047c <USART_SendByte>
 8000568:	e7f7      	b.n	800055a <USART_Printf+0xb4>
 800056a:	4613      	mov	r3, r2
 800056c:	e7e5      	b.n	800053a <USART_Printf+0x94>
 800056e:	f7ff ff85 	bl	800047c <USART_SendByte>
 8000572:	464f      	mov	r7, r9
 8000574:	e7b4      	b.n	80004e0 <USART_Printf+0x3a>
 8000576:	bf00      	nop

08000578 <LED_Init>:
 8000578:	4a05      	ldr	r2, [pc, #20]	; (8000590 <LED_Init+0x18>)
 800057a:	6b13      	ldr	r3, [r2, #48]	; 0x30
 800057c:	f043 0304 	orr.w	r3, r3, #4
 8000580:	6313      	str	r3, [r2, #48]	; 0x30
 8000582:	f5a2 5240 	sub.w	r2, r2, #12288	; 0x3000
 8000586:	6813      	ldr	r3, [r2, #0]
 8000588:	f043 6380 	orr.w	r3, r3, #67108864	; 0x4000000
 800058c:	6013      	str	r3, [r2, #0]
 800058e:	4770      	bx	lr
 8000590:	40023800 	.word	0x40023800

08000594 <LED_On>:
 8000594:	4a04      	ldr	r2, [pc, #16]	; (80005a8 <LED_On+0x14>)
 8000596:	6953      	ldr	r3, [r2, #20]
 8000598:	b118      	cbz	r0, 80005a2 <LED_On+0xe>
 800059a:	f443 5300 	orr.w	r3, r3, #8192	; 0x2000
 800059e:	6153      	str	r3, [r2, #20]
 80005a0:	4770      	bx	lr
 80005a2:	f423 5300 	bic.w	r3, r3, #8192	; 0x2000
 80005a6:	e7fa      	b.n	800059e <LED_On+0xa>
 80005a8:	40020800 	.word	0x40020800

080005ac <Delay_Init>:
 80005ac:	b513      	push	{r0, r1, r4, lr}
 80005ae:	4b0d      	ldr	r3, [pc, #52]	; (80005e4 <Delay_Init+0x38>)
 80005b0:	6818      	ldr	r0, [r3, #0]
 80005b2:	9000      	str	r0, [sp, #0]
 80005b4:	889b      	ldrh	r3, [r3, #4]
 80005b6:	f8ad 3004 	strh.w	r3, [sp, #4]
 80005ba:	4668      	mov	r0, sp
 80005bc:	f7ff fef4 	bl	80003a8 <Timer_Init>
 80005c0:	2403      	movs	r4, #3
 80005c2:	2331      	movs	r3, #49	; 0x31
 80005c4:	4668      	mov	r0, sp
 80005c6:	f8ad 3002 	strh.w	r3, [sp, #2]
 80005ca:	f88d 4000 	strb.w	r4, [sp]
 80005ce:	f7ff feeb 	bl	80003a8 <Timer_Init>
 80005d2:	2002      	movs	r0, #2
 80005d4:	f7ff fef6 	bl	80003c4 <Timer_Start>
 80005d8:	4620      	mov	r0, r4
 80005da:	f7ff fef3 	bl	80003c4 <Timer_Start>
 80005de:	b002      	add	sp, #8
 80005e0:	bd10      	pop	{r4, pc}
 80005e2:	bf00      	nop
 80005e4:	08000680 	.word	0x08000680

080005e8 <Delay_ms>:
 80005e8:	b510      	push	{r4, lr}
 80005ea:	4604      	mov	r4, r0
 80005ec:	2002      	movs	r0, #2
 80005ee:	f7ff ff10 	bl	8000412 <Timer_CurCount>
 80005f2:	1b04      	subs	r4, r0, r4
 80005f4:	b2a4      	uxth	r4, r4
 80005f6:	2002      	movs	r0, #2
 80005f8:	f7ff ff0b 	bl	8000412 <Timer_CurCount>
 80005fc:	42a0      	cmp	r0, r4
 80005fe:	d1fa      	bne.n	80005f6 <Delay_ms+0xe>
 8000600:	bd10      	pop	{r4, pc}

08000602 <Delay_us>:
 8000602:	b510      	push	{r4, lr}
 8000604:	4604      	mov	r4, r0
 8000606:	2003      	movs	r0, #3
 8000608:	f7ff ff03 	bl	8000412 <Timer_CurCount>
 800060c:	1b04      	subs	r4, r0, r4
 800060e:	b2a4      	uxth	r4, r4
 8000610:	2003      	movs	r0, #3
 8000612:	f7ff fefe 	bl	8000412 <Timer_CurCount>
 8000616:	42a0      	cmp	r0, r4
 8000618:	d1fa      	bne.n	8000610 <Delay_us+0xe>
 800061a:	bd10      	pop	{r4, pc}

0800061c <__Sys_UserMode>:
 800061c:	df00      	svc	0
 800061e:	4770      	bx	lr

08000620 <__Int_SVC>:
 8000620:	490a      	ldr	r1, [pc, #40]	; (800064c <__Sys_KernelMode+0x16>)
 8000622:	e8a1 0ff0 	stmia.w	r1!, {r4, r5, r6, r7, r8, r9, sl, fp}
 8000626:	6a01      	ldr	r1, [r0, #32]
 8000628:	f381 8809 	msr	PSP, r1
 800062c:	e8b0 0ff0 	ldmia.w	r0!, {r4, r5, r6, r7, r8, r9, sl, fp}
 8000630:	f06f 0e02 	mvn.w	lr, #2
 8000634:	4770      	bx	lr

08000636 <__Sys_KernelMode>:
 8000636:	e8a0 0ff0 	stmia.w	r0!, {r4, r5, r6, r7, r8, r9, sl, fp}
 800063a:	f3ef 8109 	mrs	r1, PSP
 800063e:	6001      	str	r1, [r0, #0]
 8000640:	4902      	ldr	r1, [pc, #8]	; (800064c <__Sys_KernelMode+0x16>)
 8000642:	e8b1 0ff0 	ldmia.w	r1!, {r4, r5, r6, r7, r8, r9, sl, fp}
 8000646:	f06f 0e06 	mvn.w	lr, #6
 800064a:	4770      	bx	lr
 800064c:	2001e00c 	.word	0x2001e00c

Disassembly of section .text.startup:

08000650 <main>:
 8000650:	b508      	push	{r3, lr}
 8000652:	f7ff fe57 	bl	8000304 <MCU_Init>
 8000656:	f7ff fee3 	bl	8000420 <USART_Init>
 800065a:	f7ff fd9b 	bl	8000194 <Sys_Init>
 800065e:	4806      	ldr	r0, [pc, #24]	; (8000678 <main+0x28>)
 8000660:	f44f 6180 	mov.w	r1, #1024	; 0x400
 8000664:	f7ff fd72 	bl	800014c <Task_New>
 8000668:	4804      	ldr	r0, [pc, #16]	; (800067c <main+0x2c>)
 800066a:	f44f 6180 	mov.w	r1, #1024	; 0x400
 800066e:	f7ff fd6d 	bl	800014c <Task_New>
 8000672:	f7ff fda5 	bl	80001c0 <Sys_StartScheduler>
 8000676:	e7fe      	b.n	8000676 <main+0x26>
 8000678:	08000045 	.word	0x08000045
 800067c:	08000055 	.word	0x08000055
