
build/program.elf:     file format elf32-littlearm


Disassembly of section .text:

08000000 <entry-0x148>:
 8000000:	20020000 	.word	0x20020000
 8000004:	08000149 	.word	0x08000149
 8000008:	0800014d 	.word	0x0800014d
 800000c:	0800014d 	.word	0x0800014d
 8000010:	0800014d 	.word	0x0800014d
 8000014:	0800014d 	.word	0x0800014d
 8000018:	0800014d 	.word	0x0800014d
 800001c:	0800014d 	.word	0x0800014d
 8000020:	0800014d 	.word	0x0800014d
 8000024:	0800014d 	.word	0x0800014d
 8000028:	0800014d 	.word	0x0800014d
 800002c:	0800014d 	.word	0x0800014d
 8000030:	0800014d 	.word	0x0800014d
 8000034:	0800014d 	.word	0x0800014d
 8000038:	0800014d 	.word	0x0800014d
 800003c:	0800014d 	.word	0x0800014d
 8000040:	0800014d 	.word	0x0800014d
 8000044:	0800014d 	.word	0x0800014d
 8000048:	0800014d 	.word	0x0800014d
 800004c:	0800014d 	.word	0x0800014d
 8000050:	0800014d 	.word	0x0800014d
 8000054:	0800014d 	.word	0x0800014d
 8000058:	0800014d 	.word	0x0800014d
 800005c:	0800014d 	.word	0x0800014d
 8000060:	0800014d 	.word	0x0800014d
 8000064:	0800014d 	.word	0x0800014d
 8000068:	0800014d 	.word	0x0800014d
 800006c:	0800014d 	.word	0x0800014d
 8000070:	0800014d 	.word	0x0800014d
 8000074:	0800014d 	.word	0x0800014d
 8000078:	0800014d 	.word	0x0800014d
 800007c:	0800014d 	.word	0x0800014d
 8000080:	0800014d 	.word	0x0800014d
 8000084:	0800014d 	.word	0x0800014d
 8000088:	0800014d 	.word	0x0800014d
 800008c:	0800014d 	.word	0x0800014d
 8000090:	0800014d 	.word	0x0800014d
 8000094:	0800014d 	.word	0x0800014d
 8000098:	0800014d 	.word	0x0800014d
 800009c:	0800014d 	.word	0x0800014d
 80000a0:	0800014d 	.word	0x0800014d
 80000a4:	0800014d 	.word	0x0800014d
 80000a8:	0800014d 	.word	0x0800014d
 80000ac:	0800014d 	.word	0x0800014d
 80000b0:	0800014d 	.word	0x0800014d
 80000b4:	0800014d 	.word	0x0800014d
 80000b8:	0800014d 	.word	0x0800014d
 80000bc:	0800014d 	.word	0x0800014d
 80000c0:	0800014d 	.word	0x0800014d
 80000c4:	0800014d 	.word	0x0800014d
 80000c8:	0800014d 	.word	0x0800014d
 80000cc:	0800014d 	.word	0x0800014d
 80000d0:	0800014d 	.word	0x0800014d
 80000d4:	0800014d 	.word	0x0800014d
 80000d8:	0800014d 	.word	0x0800014d
 80000dc:	0800014d 	.word	0x0800014d
 80000e0:	0800014d 	.word	0x0800014d
 80000e4:	0800014d 	.word	0x0800014d
 80000e8:	0800014d 	.word	0x0800014d
 80000ec:	0800014d 	.word	0x0800014d
 80000f0:	0800014d 	.word	0x0800014d
 80000f4:	0800014d 	.word	0x0800014d
 80000f8:	0800014d 	.word	0x0800014d
 80000fc:	0800014d 	.word	0x0800014d
 8000100:	0800014d 	.word	0x0800014d
 8000104:	0800014d 	.word	0x0800014d
 8000108:	0800014d 	.word	0x0800014d
 800010c:	0800014d 	.word	0x0800014d
 8000110:	0800014d 	.word	0x0800014d
 8000114:	0800014d 	.word	0x0800014d
 8000118:	0800014d 	.word	0x0800014d
 800011c:	0800014d 	.word	0x0800014d
 8000120:	0800014d 	.word	0x0800014d
 8000124:	0800014d 	.word	0x0800014d
 8000128:	0800014d 	.word	0x0800014d
 800012c:	0800014d 	.word	0x0800014d
 8000130:	0800014d 	.word	0x0800014d
 8000134:	0800014d 	.word	0x0800014d
 8000138:	0800014d 	.word	0x0800014d
 800013c:	0800014d 	.word	0x0800014d
 8000140:	0800014d 	.word	0x0800014d
 8000144:	0800014d 	.word	0x0800014d

08000148 <entry>:
 8000148:	f000 f9dc 	bl	8000504 <main>

0800014c <fault_handler>:
 800014c:	e7fe      	b.n	800014c <fault_handler>
	...

08000150 <__sysclk_init>:
 8000150:	4b24      	ldr	r3, [pc, #144]	; (80001e4 <__sysclk_init+0x94>)
 8000152:	6c5a      	ldr	r2, [r3, #68]	; 0x44
 8000154:	f042 0210 	orr.w	r2, r2, #16
 8000158:	645a      	str	r2, [r3, #68]	; 0x44
 800015a:	6b1a      	ldr	r2, [r3, #48]	; 0x30
 800015c:	f042 0201 	orr.w	r2, r2, #1
 8000160:	631a      	str	r2, [r3, #48]	; 0x30
 8000162:	681a      	ldr	r2, [r3, #0]
 8000164:	f442 3280 	orr.w	r2, r2, #65536	; 0x10000
 8000168:	b082      	sub	sp, #8
 800016a:	601a      	str	r2, [r3, #0]
 800016c:	681a      	ldr	r2, [r3, #0]
 800016e:	0392      	lsls	r2, r2, #14
 8000170:	d5fc      	bpl.n	800016c <__sysclk_init+0x1c>
 8000172:	685a      	ldr	r2, [r3, #4]
 8000174:	9201      	str	r2, [sp, #4]
 8000176:	2210      	movs	r2, #16
 8000178:	f88d 2004 	strb.w	r2, [sp, #4]
 800017c:	9a01      	ldr	r2, [sp, #4]
 800017e:	605a      	str	r2, [r3, #4]
 8000180:	685a      	ldr	r2, [r3, #4]
 8000182:	9201      	str	r2, [sp, #4]
 8000184:	2220      	movs	r2, #32
 8000186:	f88d 2005 	strb.w	r2, [sp, #5]
 800018a:	9a01      	ldr	r2, [sp, #4]
 800018c:	605a      	str	r2, [r3, #4]
 800018e:	685a      	ldr	r2, [r3, #4]
 8000190:	9201      	str	r2, [sp, #4]
 8000192:	2240      	movs	r2, #64	; 0x40
 8000194:	f88d 2006 	strb.w	r2, [sp, #6]
 8000198:	9a01      	ldr	r2, [sp, #4]
 800019a:	605a      	str	r2, [r3, #4]
 800019c:	681a      	ldr	r2, [r3, #0]
 800019e:	f042 7280 	orr.w	r2, r2, #16777216	; 0x1000000
 80001a2:	601a      	str	r2, [r3, #0]
 80001a4:	4a0f      	ldr	r2, [pc, #60]	; (80001e4 <__sysclk_init+0x94>)
 80001a6:	6813      	ldr	r3, [r2, #0]
 80001a8:	019b      	lsls	r3, r3, #6
 80001aa:	d5fc      	bpl.n	80001a6 <__sysclk_init+0x56>
 80001ac:	2394      	movs	r3, #148	; 0x94
 80001ae:	7253      	strb	r3, [r2, #9]
 80001b0:	4b0d      	ldr	r3, [pc, #52]	; (80001e8 <__sysclk_init+0x98>)
 80001b2:	6819      	ldr	r1, [r3, #0]
 80001b4:	9101      	str	r1, [sp, #4]
 80001b6:	2103      	movs	r1, #3
 80001b8:	f88d 1004 	strb.w	r1, [sp, #4]
 80001bc:	9901      	ldr	r1, [sp, #4]
 80001be:	6019      	str	r1, [r3, #0]
 80001c0:	2102      	movs	r1, #2
 80001c2:	7211      	strb	r1, [r2, #8]
 80001c4:	4907      	ldr	r1, [pc, #28]	; (80001e4 <__sysclk_init+0x94>)
 80001c6:	688a      	ldr	r2, [r1, #8]
 80001c8:	f002 020c 	and.w	r2, r2, #12
 80001cc:	2a08      	cmp	r2, #8
 80001ce:	d1fa      	bne.n	80001c6 <__sysclk_init+0x76>
 80001d0:	681a      	ldr	r2, [r3, #0]
 80001d2:	9201      	str	r2, [sp, #4]
 80001d4:	2207      	movs	r2, #7
 80001d6:	f88d 2005 	strb.w	r2, [sp, #5]
 80001da:	9a01      	ldr	r2, [sp, #4]
 80001dc:	601a      	str	r2, [r3, #0]
 80001de:	b002      	add	sp, #8
 80001e0:	4770      	bx	lr
 80001e2:	bf00      	nop
 80001e4:	40023800 	.word	0x40023800
 80001e8:	40023c00 	.word	0x40023c00

080001ec <mcu_init>:
 80001ec:	f7ff bfb0 	b.w	8000150 <__sysclk_init>

080001f0 <__mco2_out>:
 80001f0:	4b0f      	ldr	r3, [pc, #60]	; (8000230 <__mco2_out+0x40>)
 80001f2:	689a      	ldr	r2, [r3, #8]
 80001f4:	f042 6200 	orr.w	r2, r2, #134217728	; 0x8000000
 80001f8:	609a      	str	r2, [r3, #8]
 80001fa:	689a      	ldr	r2, [r3, #8]
 80001fc:	f042 5280 	orr.w	r2, r2, #268435456	; 0x10000000
 8000200:	609a      	str	r2, [r3, #8]
 8000202:	689a      	ldr	r2, [r3, #8]
 8000204:	f042 5200 	orr.w	r2, r2, #536870912	; 0x20000000
 8000208:	609a      	str	r2, [r3, #8]
 800020a:	6b1a      	ldr	r2, [r3, #48]	; 0x30
 800020c:	f042 0204 	orr.w	r2, r2, #4
 8000210:	631a      	str	r2, [r3, #48]	; 0x30
 8000212:	f5a3 5340 	sub.w	r3, r3, #12288	; 0x3000
 8000216:	681a      	ldr	r2, [r3, #0]
 8000218:	f442 2200 	orr.w	r2, r2, #524288	; 0x80000
 800021c:	601a      	str	r2, [r3, #0]
 800021e:	689a      	ldr	r2, [r3, #8]
 8000220:	f442 2280 	orr.w	r2, r2, #262144	; 0x40000
 8000224:	609a      	str	r2, [r3, #8]
 8000226:	689a      	ldr	r2, [r3, #8]
 8000228:	f442 2200 	orr.w	r2, r2, #524288	; 0x80000
 800022c:	609a      	str	r2, [r3, #8]
 800022e:	4770      	bx	lr
 8000230:	40023800 	.word	0x40023800

08000234 <timer_set>:
 8000234:	7803      	ldrb	r3, [r0, #0]
 8000236:	7842      	ldrb	r2, [r0, #1]
 8000238:	029b      	lsls	r3, r3, #10
 800023a:	b082      	sub	sp, #8
 800023c:	f103 4380 	add.w	r3, r3, #1073741824	; 0x40000000
 8000240:	b312      	cbz	r2, 8000288 <timer_set+0x54>
 8000242:	681a      	ldr	r2, [r3, #0]
 8000244:	f042 0210 	orr.w	r2, r2, #16
 8000248:	601a      	str	r2, [r3, #0]
 800024a:	6a9a      	ldr	r2, [r3, #40]	; 0x28
 800024c:	9201      	str	r2, [sp, #4]
 800024e:	8842      	ldrh	r2, [r0, #2]
 8000250:	f8ad 2004 	strh.w	r2, [sp, #4]
 8000254:	9a01      	ldr	r2, [sp, #4]
 8000256:	629a      	str	r2, [r3, #40]	; 0x28
 8000258:	6ada      	ldr	r2, [r3, #44]	; 0x2c
 800025a:	9201      	str	r2, [sp, #4]
 800025c:	8882      	ldrh	r2, [r0, #4]
 800025e:	f8ad 2004 	strh.w	r2, [sp, #4]
 8000262:	9a01      	ldr	r2, [sp, #4]
 8000264:	62da      	str	r2, [r3, #44]	; 0x2c
 8000266:	6ada      	ldr	r2, [r3, #44]	; 0x2c
 8000268:	9201      	str	r2, [sp, #4]
 800026a:	2200      	movs	r2, #0
 800026c:	f8ad 2006 	strh.w	r2, [sp, #6]
 8000270:	9a01      	ldr	r2, [sp, #4]
 8000272:	62da      	str	r2, [r3, #44]	; 0x2c
 8000274:	695a      	ldr	r2, [r3, #20]
 8000276:	f042 0201 	orr.w	r2, r2, #1
 800027a:	615a      	str	r2, [r3, #20]
 800027c:	691a      	ldr	r2, [r3, #16]
 800027e:	f022 0201 	bic.w	r2, r2, #1
 8000282:	611a      	str	r2, [r3, #16]
 8000284:	b002      	add	sp, #8
 8000286:	4770      	bx	lr
 8000288:	681a      	ldr	r2, [r3, #0]
 800028a:	f022 0210 	bic.w	r2, r2, #16
 800028e:	e7db      	b.n	8000248 <timer_set+0x14>

08000290 <timer_init>:
 8000290:	4a05      	ldr	r2, [pc, #20]	; (80002a8 <timer_init+0x18>)
 8000292:	b410      	push	{r4}
 8000294:	7804      	ldrb	r4, [r0, #0]
 8000296:	6c11      	ldr	r1, [r2, #64]	; 0x40
 8000298:	2301      	movs	r3, #1
 800029a:	40a3      	lsls	r3, r4
 800029c:	430b      	orrs	r3, r1
 800029e:	bc10      	pop	{r4}
 80002a0:	6413      	str	r3, [r2, #64]	; 0x40
 80002a2:	f7ff bfc7 	b.w	8000234 <timer_set>
 80002a6:	bf00      	nop
 80002a8:	40023800 	.word	0x40023800

080002ac <timer_start>:
 80002ac:	0280      	lsls	r0, r0, #10
 80002ae:	f100 4080 	add.w	r0, r0, #1073741824	; 0x40000000
 80002b2:	6943      	ldr	r3, [r0, #20]
 80002b4:	f043 0301 	orr.w	r3, r3, #1
 80002b8:	6143      	str	r3, [r0, #20]
 80002ba:	6903      	ldr	r3, [r0, #16]
 80002bc:	f023 0301 	bic.w	r3, r3, #1
 80002c0:	6103      	str	r3, [r0, #16]
 80002c2:	6803      	ldr	r3, [r0, #0]
 80002c4:	f043 0301 	orr.w	r3, r3, #1
 80002c8:	6003      	str	r3, [r0, #0]
 80002ca:	4770      	bx	lr

080002cc <timer_stop>:
 80002cc:	0280      	lsls	r0, r0, #10
 80002ce:	f100 4080 	add.w	r0, r0, #1073741824	; 0x40000000
 80002d2:	6803      	ldr	r3, [r0, #0]
 80002d4:	f023 0301 	bic.w	r3, r3, #1
 80002d8:	6003      	str	r3, [r0, #0]
 80002da:	4770      	bx	lr

080002dc <timer_reach>:
 80002dc:	0280      	lsls	r0, r0, #10
 80002de:	f100 4080 	add.w	r0, r0, #1073741824	; 0x40000000
 80002e2:	6900      	ldr	r0, [r0, #16]
 80002e4:	f000 0001 	and.w	r0, r0, #1
 80002e8:	4770      	bx	lr

080002ea <timer_reach_clear>:
 80002ea:	0280      	lsls	r0, r0, #10
 80002ec:	f100 4080 	add.w	r0, r0, #1073741824	; 0x40000000
 80002f0:	6903      	ldr	r3, [r0, #16]
 80002f2:	f023 0301 	bic.w	r3, r3, #1
 80002f6:	6103      	str	r3, [r0, #16]
 80002f8:	4770      	bx	lr

080002fa <timer_cur_count>:
 80002fa:	0280      	lsls	r0, r0, #10
 80002fc:	f100 4080 	add.w	r0, r0, #1073741824	; 0x40000000
 8000300:	6a40      	ldr	r0, [r0, #36]	; 0x24
 8000302:	b280      	uxth	r0, r0
 8000304:	4770      	bx	lr
 8000306:	bf00      	nop

08000308 <usart_init>:
 8000308:	4b15      	ldr	r3, [pc, #84]	; (8000360 <usart_init+0x58>)
 800030a:	6c5a      	ldr	r2, [r3, #68]	; 0x44
 800030c:	f042 0210 	orr.w	r2, r2, #16
 8000310:	645a      	str	r2, [r3, #68]	; 0x44
 8000312:	6b1a      	ldr	r2, [r3, #48]	; 0x30
 8000314:	f042 0201 	orr.w	r2, r2, #1
 8000318:	631a      	str	r2, [r3, #48]	; 0x30
 800031a:	f5a3 3394 	sub.w	r3, r3, #75776	; 0x12800
 800031e:	b082      	sub	sp, #8
 8000320:	689a      	ldr	r2, [r3, #8]
 8000322:	9201      	str	r2, [sp, #4]
 8000324:	f241 4258 	movw	r2, #5208	; 0x1458
 8000328:	f8ad 2004 	strh.w	r2, [sp, #4]
 800032c:	9a01      	ldr	r2, [sp, #4]
 800032e:	609a      	str	r2, [r3, #8]
 8000330:	68da      	ldr	r2, [r3, #12]
 8000332:	f442 5200 	orr.w	r2, r2, #8192	; 0x2000
 8000336:	60da      	str	r2, [r3, #12]
 8000338:	68da      	ldr	r2, [r3, #12]
 800033a:	f042 0208 	orr.w	r2, r2, #8
 800033e:	60da      	str	r2, [r3, #12]
 8000340:	f503 4370 	add.w	r3, r3, #61440	; 0xf000
 8000344:	681a      	ldr	r2, [r3, #0]
 8000346:	f442 2200 	orr.w	r2, r2, #524288	; 0x80000
 800034a:	601a      	str	r2, [r3, #0]
 800034c:	6a5a      	ldr	r2, [r3, #36]	; 0x24
 800034e:	9201      	str	r2, [sp, #4]
 8000350:	2270      	movs	r2, #112	; 0x70
 8000352:	f88d 2004 	strb.w	r2, [sp, #4]
 8000356:	9a01      	ldr	r2, [sp, #4]
 8000358:	625a      	str	r2, [r3, #36]	; 0x24
 800035a:	b002      	add	sp, #8
 800035c:	4770      	bx	lr
 800035e:	bf00      	nop
 8000360:	40023800 	.word	0x40023800

08000364 <usart_sendbyte>:
 8000364:	4b02      	ldr	r3, [pc, #8]	; (8000370 <usart_sendbyte+0xc>)
 8000366:	681a      	ldr	r2, [r3, #0]
 8000368:	0612      	lsls	r2, r2, #24
 800036a:	d5fc      	bpl.n	8000366 <usart_sendbyte+0x2>
 800036c:	7118      	strb	r0, [r3, #4]
 800036e:	4770      	bx	lr
 8000370:	40011000 	.word	0x40011000

08000374 <usart_sendline>:
 8000374:	b508      	push	{r3, lr}
 8000376:	1e41      	subs	r1, r0, #1
 8000378:	f811 0f01 	ldrb.w	r0, [r1, #1]!
 800037c:	b920      	cbnz	r0, 8000388 <usart_sendline+0x14>
 800037e:	e8bd 4008 	ldmia.w	sp!, {r3, lr}
 8000382:	200a      	movs	r0, #10
 8000384:	f7ff bfee 	b.w	8000364 <usart_sendbyte>
 8000388:	f7ff ffec 	bl	8000364 <usart_sendbyte>
 800038c:	e7f4      	b.n	8000378 <usart_sendline+0x4>

0800038e <usart_printf>:
 800038e:	e92d 47ff 	stmdb	sp!, {r0, r1, r2, r3, r4, r5, r6, r7, r8, r9, sl, lr}
 8000392:	ea82 78e2 	eor.w	r8, r2, r2, asr #31
 8000396:	4681      	mov	r9, r0
 8000398:	461d      	mov	r5, r3
 800039a:	4614      	mov	r4, r2
 800039c:	eba8 78e2 	sub.w	r8, r8, r2, asr #31
 80003a0:	260a      	movs	r6, #10
 80003a2:	f899 0000 	ldrb.w	r0, [r9]
 80003a6:	b910      	cbnz	r0, 80003ae <usart_printf+0x20>
 80003a8:	b004      	add	sp, #16
 80003aa:	e8bd 87f0 	ldmia.w	sp!, {r4, r5, r6, r7, r8, r9, sl, pc}
 80003ae:	2825      	cmp	r0, #37	; 0x25
 80003b0:	f109 0701 	add.w	r7, r9, #1
 80003b4:	d14f      	bne.n	8000456 <usart_printf+0xc8>
 80003b6:	f899 3001 	ldrb.w	r3, [r9, #1]
 80003ba:	2b73      	cmp	r3, #115	; 0x73
 80003bc:	d10a      	bne.n	80003d4 <usart_printf+0x46>
 80003be:	4689      	mov	r9, r1
 80003c0:	4649      	mov	r1, r9
 80003c2:	f819 0b01 	ldrb.w	r0, [r9], #1
 80003c6:	b910      	cbnz	r0, 80003ce <usart_printf+0x40>
 80003c8:	f107 0901 	add.w	r9, r7, #1
 80003cc:	e7e9      	b.n	80003a2 <usart_printf+0x14>
 80003ce:	f7ff ffc9 	bl	8000364 <usart_sendbyte>
 80003d2:	e7f5      	b.n	80003c0 <usart_printf+0x32>
 80003d4:	2b64      	cmp	r3, #100	; 0x64
 80003d6:	d11d      	bne.n	8000414 <usart_printf+0x86>
 80003d8:	2c00      	cmp	r4, #0
 80003da:	da02      	bge.n	80003e2 <usart_printf+0x54>
 80003dc:	202d      	movs	r0, #45	; 0x2d
 80003de:	f7ff ffc1 	bl	8000364 <usart_sendbyte>
 80003e2:	ab01      	add	r3, sp, #4
 80003e4:	4640      	mov	r0, r8
 80003e6:	f04f 0900 	mov.w	r9, #0
 80003ea:	469a      	mov	sl, r3
 80003ec:	fbb0 f2f6 	udiv	r2, r0, r6
 80003f0:	fb06 0012 	mls	r0, r6, r2, r0
 80003f4:	3030      	adds	r0, #48	; 0x30
 80003f6:	f803 0b01 	strb.w	r0, [r3], #1
 80003fa:	f109 0901 	add.w	r9, r9, #1
 80003fe:	4610      	mov	r0, r2
 8000400:	2a00      	cmp	r2, #0
 8000402:	d1f3      	bne.n	80003ec <usart_printf+0x5e>
 8000404:	f1b9 0901 	subs.w	r9, r9, #1
 8000408:	d3de      	bcc.n	80003c8 <usart_printf+0x3a>
 800040a:	f81a 0009 	ldrb.w	r0, [sl, r9]
 800040e:	f7ff ffa9 	bl	8000364 <usart_sendbyte>
 8000412:	e7f7      	b.n	8000404 <usart_printf+0x76>
 8000414:	2b78      	cmp	r3, #120	; 0x78
 8000416:	d1d7      	bne.n	80003c8 <usart_printf+0x3a>
 8000418:	a801      	add	r0, sp, #4
 800041a:	462b      	mov	r3, r5
 800041c:	f04f 0900 	mov.w	r9, #0
 8000420:	4682      	mov	sl, r0
 8000422:	f003 0c0f 	and.w	ip, r3, #15
 8000426:	4662      	mov	r2, ip
 8000428:	f1bc 0f09 	cmp.w	ip, #9
 800042c:	bfd4      	ite	le
 800042e:	3230      	addle	r2, #48	; 0x30
 8000430:	3257      	addgt	r2, #87	; 0x57
 8000432:	2b0f      	cmp	r3, #15
 8000434:	f800 2b01 	strb.w	r2, [r0], #1
 8000438:	f109 0901 	add.w	r9, r9, #1
 800043c:	ea4f 1213 	mov.w	r2, r3, lsr #4
 8000440:	d807      	bhi.n	8000452 <usart_printf+0xc4>
 8000442:	f1b9 0901 	subs.w	r9, r9, #1
 8000446:	d3bf      	bcc.n	80003c8 <usart_printf+0x3a>
 8000448:	f81a 0009 	ldrb.w	r0, [sl, r9]
 800044c:	f7ff ff8a 	bl	8000364 <usart_sendbyte>
 8000450:	e7f7      	b.n	8000442 <usart_printf+0xb4>
 8000452:	4613      	mov	r3, r2
 8000454:	e7e5      	b.n	8000422 <usart_printf+0x94>
 8000456:	f7ff ff85 	bl	8000364 <usart_sendbyte>
 800045a:	464f      	mov	r7, r9
 800045c:	e7b4      	b.n	80003c8 <usart_printf+0x3a>
 800045e:	bf00      	nop

08000460 <led_init>:
 8000460:	4a05      	ldr	r2, [pc, #20]	; (8000478 <led_init+0x18>)
 8000462:	6b13      	ldr	r3, [r2, #48]	; 0x30
 8000464:	f043 0304 	orr.w	r3, r3, #4
 8000468:	6313      	str	r3, [r2, #48]	; 0x30
 800046a:	f5a2 5240 	sub.w	r2, r2, #12288	; 0x3000
 800046e:	6813      	ldr	r3, [r2, #0]
 8000470:	f043 6380 	orr.w	r3, r3, #67108864	; 0x4000000
 8000474:	6013      	str	r3, [r2, #0]
 8000476:	4770      	bx	lr
 8000478:	40023800 	.word	0x40023800

0800047c <led_on>:
 800047c:	4a04      	ldr	r2, [pc, #16]	; (8000490 <led_on+0x14>)
 800047e:	6953      	ldr	r3, [r2, #20]
 8000480:	b118      	cbz	r0, 800048a <led_on+0xe>
 8000482:	f443 5300 	orr.w	r3, r3, #8192	; 0x2000
 8000486:	6153      	str	r3, [r2, #20]
 8000488:	4770      	bx	lr
 800048a:	f423 5300 	bic.w	r3, r3, #8192	; 0x2000
 800048e:	e7fa      	b.n	8000486 <led_on+0xa>
 8000490:	40020800 	.word	0x40020800

08000494 <delay_init>:
 8000494:	b513      	push	{r0, r1, r4, lr}
 8000496:	4b0d      	ldr	r3, [pc, #52]	; (80004cc <delay_init+0x38>)
 8000498:	6818      	ldr	r0, [r3, #0]
 800049a:	9000      	str	r0, [sp, #0]
 800049c:	889b      	ldrh	r3, [r3, #4]
 800049e:	f8ad 3004 	strh.w	r3, [sp, #4]
 80004a2:	4668      	mov	r0, sp
 80004a4:	f7ff fef4 	bl	8000290 <timer_init>
 80004a8:	2403      	movs	r4, #3
 80004aa:	2331      	movs	r3, #49	; 0x31
 80004ac:	4668      	mov	r0, sp
 80004ae:	f8ad 3002 	strh.w	r3, [sp, #2]
 80004b2:	f88d 4000 	strb.w	r4, [sp]
 80004b6:	f7ff feeb 	bl	8000290 <timer_init>
 80004ba:	2002      	movs	r0, #2
 80004bc:	f7ff fef6 	bl	80002ac <timer_start>
 80004c0:	4620      	mov	r0, r4
 80004c2:	f7ff fef3 	bl	80002ac <timer_start>
 80004c6:	b002      	add	sp, #8
 80004c8:	bd10      	pop	{r4, pc}
 80004ca:	bf00      	nop
 80004cc:	08000534 	.word	0x08000534

080004d0 <delay_ms>:
 80004d0:	b510      	push	{r4, lr}
 80004d2:	4604      	mov	r4, r0
 80004d4:	2002      	movs	r0, #2
 80004d6:	f7ff ff10 	bl	80002fa <timer_cur_count>
 80004da:	1b04      	subs	r4, r0, r4
 80004dc:	b2a4      	uxth	r4, r4
 80004de:	2002      	movs	r0, #2
 80004e0:	f7ff ff0b 	bl	80002fa <timer_cur_count>
 80004e4:	42a0      	cmp	r0, r4
 80004e6:	d1fa      	bne.n	80004de <delay_ms+0xe>
 80004e8:	bd10      	pop	{r4, pc}

080004ea <delay_us>:
 80004ea:	b510      	push	{r4, lr}
 80004ec:	4604      	mov	r4, r0
 80004ee:	2003      	movs	r0, #3
 80004f0:	f7ff ff03 	bl	80002fa <timer_cur_count>
 80004f4:	1b04      	subs	r4, r0, r4
 80004f6:	b2a4      	uxth	r4, r4
 80004f8:	2003      	movs	r0, #3
 80004fa:	f7ff fefe 	bl	80002fa <timer_cur_count>
 80004fe:	42a0      	cmp	r0, r4
 8000500:	d1fa      	bne.n	80004f8 <delay_us+0xe>
 8000502:	bd10      	pop	{r4, pc}

Disassembly of section .text.startup:

08000504 <main>:
 8000504:	b508      	push	{r3, lr}
 8000506:	f7ff fe71 	bl	80001ec <mcu_init>
 800050a:	f7ff fefd 	bl	8000308 <usart_init>
 800050e:	f7ff ffa7 	bl	8000460 <led_init>
 8000512:	f7ff ffbf 	bl	8000494 <delay_init>
 8000516:	4c06      	ldr	r4, [pc, #24]	; (8000530 <main+0x2c>)
 8000518:	4620      	mov	r0, r4
 800051a:	f7ff ff2b 	bl	8000374 <usart_sendline>
 800051e:	f24c 3050 	movw	r0, #50000	; 0xc350
 8000522:	f7ff ffe2 	bl	80004ea <delay_us>
 8000526:	f24c 3050 	movw	r0, #50000	; 0xc350
 800052a:	f7ff ffde 	bl	80004ea <delay_us>
 800052e:	e7f3      	b.n	8000518 <main+0x14>
 8000530:	0800053a 	.word	0x0800053a
